target datalayout = "e-m:e-p270:32:32-p271:32:32-p272:64:64-i64:64-i128:128-f80:128-n8:16:32:64-S128"
target triple = "x86_64-pc-linux-gnu"

@.str.9 = private unnamed_addr constant [5 x i8] c"HOME\00", align 1
@.str.10 = private unnamed_addr constant [57 x i8] c"could not determine user's home directory; HOME is unset\00", align 1
@.str.11 = private unnamed_addr constant [41 x i8] c"could not chdir to user's home directory\00", align 1

; Function Attrs: nounwind uwtable
define internal void @cd_to_homedir() #0 {
  %1 = alloca ptr, align 8
  call void @llvm.lifetime.start.p0(i64 8, ptr %1) #10
  %2 = call ptr @getenv(ptr noundef @.str.9) #10
  store ptr %2, ptr %1, align 8, !tbaa !11
  %3 = load ptr, ptr %1, align 8, !tbaa !11
  %4 = icmp ne ptr %3, null
  br i1 %4, label %6, label %5

5:                                                ; preds = %0
  call void (ptr, ...) @die(ptr noundef @.str.10) #12
  unreachable

6:                                                ; preds = %0
  %7 = load ptr, ptr %1, align 8, !tbaa !11
  %8 = call i32 @chdir(ptr noundef %7) #10
  %9 = icmp eq i32 %8, -1
  br i1 %9, label %10, label %11

10:                                               ; preds = %6
  call void (ptr, ...) @die(ptr noundef @.str.11) #12
  unreachable

11:                                               ; preds = %6
  call void @llvm.lifetime.end.p0(i64 8, ptr %1) #10
  ret void
}