; Function Attrs: nounwind uwtable
define internal fastcc void @cd_to_homedir() unnamed_addr #0 {
  %1 = tail call ptr @getenv(ptr noundef nonnull @.str.9) #13
  %.not = icmp eq ptr %1, null
  br i1 %.not, label %2, label %3

2:                                                ; preds = %0
  tail call void (ptr, ...) @die(ptr noundef nonnull @.str.10) #15
  unreachable

3:                                                ; preds = %0
  %4 = tail call i32 @chdir(ptr noundef nonnull %1) #13
  %5 = icmp eq i32 %4, -1
  br i1 %5, label %6, label %7

6:                                                ; preds = %3
  tail call void (ptr, ...) @die(ptr noundef nonnull @.str.11) #15
  unreachable

7:                                                ; preds = %3
  ret void
}